target datalayout = "e-m:e-p270:32:32-p271:32:32-p272:64:64-i64:64-i128:128-f80:128-n8:16:32:64-S128"
target triple = "x86_64-pc-linux-gnu"

%struct.mbedtls_net_context = type { i32 }
%struct.timeval = type { i64, i64 }
%struct.fd_set = type { [16 x i64] }

; Function Attrs: nounwind uwtable
define internal i32 @check_fd(i32 noundef %0, i32 noundef %1) #0 {
  %3 = alloca i32, align 4
  %4 = alloca i32, align 4
  %5 = alloca i32, align 4
  store i32 %0, ptr %4, align 4, !tbaa !13
  store i32 %1, ptr %5, align 4, !tbaa !13
  %6 = load i32, ptr %4, align 4, !tbaa !13
  %7 = icmp slt i32 %6, 0
  br i1 %7, label %8, label %9

8:                                                ; preds = %2
  store i32 -69, ptr %3, align 4
  br label %17

9:                                                ; preds = %2
  %10 = load i32, ptr %5, align 4, !tbaa !13
  %11 = icmp ne i32 %10, 0
  br i1 %11, label %12, label %16

12:                                               ; preds = %9
  %13 = load i32, ptr %4, align 4, !tbaa !13
  %14 = icmp sge i32 %13, 1024
  br i1 %14, label %15, label %16

15:                                               ; preds = %12
  store i32 -71, ptr %3, align 4
  br label %17

16:                                               ; preds = %12, %9
  store i32 0, ptr %3, align 4
  br label %17

17:                                               ; preds = %16, %15, %8
  %18 = load i32, ptr %3, align 4
  ret i32 %18
}

; Function Attrs: nounwind uwtable
define hidden i32 @mbedtls_net_poll(ptr noundef %0, i32 noundef %1, i32 noundef %2) #0 {
  %4 = alloca i32, align 4
  %5 = alloca ptr, align 8
  %6 = alloca i32, align 4
  %7 = alloca i32, align 4
  %8 = alloca i32, align 4
  %9 = alloca %struct.timeval, align 8
  %10 = alloca %struct.fd_set, align 8
  %11 = alloca %struct.fd_set, align 8
  %12 = alloca i32, align 4
  %13 = alloca i32, align 4
  %14 = alloca i32, align 4
  %15 = alloca ptr, align 8
  %16 = alloca i32, align 4
  %17 = alloca ptr, align 8
  store ptr %0, ptr %5, align 8, !tbaa !3
  store i32 %1, ptr %6, align 4, !tbaa !13
  store i32 %2, ptr %7, align 4, !tbaa !13
  call void @llvm.lifetime.start.p0(i64 4, ptr %8) #7
  store i32 -110, ptr %8, align 4, !tbaa !13
  call void @llvm.lifetime.start.p0(i64 16, ptr %9) #7
  call void @llvm.lifetime.start.p0(i64 128, ptr %10) #7
  call void @llvm.lifetime.start.p0(i64 128, ptr %11) #7
  call void @llvm.lifetime.start.p0(i64 4, ptr %12) #7
  %18 = load ptr, ptr %5, align 8, !tbaa !3
  %19 = getelementptr inbounds nuw %struct.mbedtls_net_context, ptr %18, i32 0, i32 0
  %20 = load i32, ptr %19, align 4, !tbaa !8
  store i32 %20, ptr %12, align 4, !tbaa !13
  %21 = load i32, ptr %12, align 4, !tbaa !13
  %22 = call i32 @check_fd(i32 noundef %21, i32 noundef 1)
  store i32 %22, ptr %8, align 4, !tbaa !13
  %23 = load i32, ptr %8, align 4, !tbaa !13
  %24 = icmp ne i32 %23, 0
  br i1 %24, label %25, label %27

25:                                               ; preds = %3
  %26 = load i32, ptr %8, align 4, !tbaa !13
  store i32 %26, ptr %4, align 4
  store i32 1, ptr %13, align 4
  br label %162

27:                                               ; preds = %3
  br label %28

28:                                               ; preds = %27
  call void @llvm.lifetime.start.p0(i64 4, ptr %14) #7
  call void @llvm.lifetime.start.p0(i64 8, ptr %15) #7
  store ptr %10, ptr %15, align 8, !tbaa !28
  store i32 0, ptr %14, align 4, !tbaa !13
  br label %29

29:                                               ; preds = %39, %28
  %30 = load i32, ptr %14, align 4, !tbaa !13
  %31 = zext i32 %30 to i64
  %32 = icmp ult i64 %31, 16
  br i1 %32, label %33, label %42

33:                                               ; preds = %29
  %34 = load ptr, ptr %15, align 8, !tbaa !28
  %35 = getelementptr inbounds nuw %struct.fd_set, ptr %34, i32 0, i32 0
  %36 = load i32, ptr %14, align 4, !tbaa !13
  %37 = zext i32 %36 to i64
  %38 = getelementptr inbounds nuw [16 x i64], ptr %35, i64 0, i64 %37
  store i64 0, ptr %38, align 8, !tbaa !29
  br label %39

39:                                               ; preds = %33
  %40 = load i32, ptr %14, align 4, !tbaa !13
  %41 = add i32 %40, 1
  store i32 %41, ptr %14, align 4, !tbaa !13
  br label %29, !llvm.loop !40

42:                                               ; preds = %29
  call void @llvm.lifetime.end.p0(i64 8, ptr %15) #7
  call void @llvm.lifetime.end.p0(i64 4, ptr %14) #7
  br label %43

43:                                               ; preds = %42
  br label %44

44:                                               ; preds = %43
  %45 = load i32, ptr %6, align 4, !tbaa !13
  %46 = and i32 %45, 1
  %47 = icmp ne i32 %46, 0
  br i1 %47, label %48, label %62

48:                                               ; preds = %44
  %49 = load i32, ptr %6, align 4, !tbaa !13
  %50 = and i32 %49, -2
  store i32 %50, ptr %6, align 4, !tbaa !13
  %51 = load i32, ptr %12, align 4, !tbaa !13
  %52 = srem i32 %51, 64
  %53 = zext i32 %52 to i64
  %54 = shl i64 1, %53
  %55 = getelementptr inbounds nuw %struct.fd_set, ptr %10, i32 0, i32 0
  %56 = load i32, ptr %12, align 4, !tbaa !13
  %57 = sdiv i32 %56, 64
  %58 = sext i32 %57 to i64
  %59 = getelementptr inbounds [16 x i64], ptr %55, i64 0, i64 %58
  %60 = load i64, ptr %59, align 8, !tbaa !29
  %61 = or i64 %60, %54
  store i64 %61, ptr %59, align 8, !tbaa !29
  br label %62

62:                                               ; preds = %48, %44
  br label %63

63:                                               ; preds = %62
  call void @llvm.lifetime.start.p0(i64 4, ptr %16) #7
  call void @llvm.lifetime.start.p0(i64 8, ptr %17) #7
  store ptr %11, ptr %17, align 8, !tbaa !28
  store i32 0, ptr %16, align 4, !tbaa !13
  br label %64

64:                                               ; preds = %74, %63
  %65 = load i32, ptr %16, align 4, !tbaa !13
  %66 = zext i32 %65 to i64
  %67 = icmp ult i64 %66, 16
  br i1 %67, label %68, label %77

68:                                               ; preds = %64
  %69 = load ptr, ptr %17, align 8, !tbaa !28
  %70 = getelementptr inbounds nuw %struct.fd_set, ptr %69, i32 0, i32 0
  %71 = load i32, ptr %16, align 4, !tbaa !13
  %72 = zext i32 %71 to i64
  %73 = getelementptr inbounds nuw [16 x i64], ptr %70, i64 0, i64 %72
  store i64 0, ptr %73, align 8, !tbaa !29
  br label %74

74:                                               ; preds = %68
  %75 = load i32, ptr %16, align 4, !tbaa !13
  %76 = add i32 %75, 1
  store i32 %76, ptr %16, align 4, !tbaa !13
  br label %64, !llvm.loop !41

77:                                               ; preds = %64
  call void @llvm.lifetime.end.p0(i64 8, ptr %17) #7
  call void @llvm.lifetime.end.p0(i64 4, ptr %16) #7
  br label %78

78:                                               ; preds = %77
  br label %79

79:                                               ; preds = %78
  %80 = load i32, ptr %6, align 4, !tbaa !13
  %81 = and i32 %80, 2
  %82 = icmp ne i32 %81, 0
  br i1 %82, label %83, label %97

83:                                               ; preds = %79
  %84 = load i32, ptr %6, align 4, !tbaa !13
  %85 = and i32 %84, -3
  store i32 %85, ptr %6, align 4, !tbaa !13
  %86 = load i32, ptr %12, align 4, !tbaa !13
  %87 = srem i32 %86, 64
  %88 = zext i32 %87 to i64
  %89 = shl i64 1, %88
  %90 = getelementptr inbounds nuw %struct.fd_set, ptr %11, i32 0, i32 0
  %91 = load i32, ptr %12, align 4, !tbaa !13
  %92 = sdiv i32 %91, 64
  %93 = sext i32 %92 to i64
  %94 = getelementptr inbounds [16 x i64], ptr %90, i64 0, i64 %93
  %95 = load i64, ptr %94, align 8, !tbaa !29
  %96 = or i64 %95, %89
  store i64 %96, ptr %94, align 8, !tbaa !29
  br label %97

97:                                               ; preds = %83, %79
  %98 = load i32, ptr %6, align 4, !tbaa !13
  %99 = icmp ne i32 %98, 0
  br i1 %99, label %100, label %101

100:                                              ; preds = %97
  store i32 -73, ptr %4, align 4
  store i32 1, ptr %13, align 4
  br label %162

101:                                              ; preds = %97
  %102 = load i32, ptr %7, align 4, !tbaa !13
  %103 = udiv i32 %102, 1000
  %104 = zext i32 %103 to i64
  %105 = getelementptr inbounds nuw %struct.timeval, ptr %9, i32 0, i32 0
  store i64 %104, ptr %105, align 8, !tbaa !42
  %106 = load i32, ptr %7, align 4, !tbaa !13
  %107 = urem i32 %106, 1000
  %108 = mul i32 %107, 1000
  %109 = zext i32 %108 to i64
  %110 = getelementptr inbounds nuw %struct.timeval, ptr %9, i32 0, i32 1
  store i64 %109, ptr %110, align 8, !tbaa !44
  br label %111

111:                                              ; preds = %121, %101
  %112 = load i32, ptr %12, align 4, !tbaa !13
  %113 = add nsw i32 %112, 1
  %114 = load i32, ptr %7, align 4, !tbaa !13
  %115 = icmp eq i32 %114, -1
  br i1 %115, label %116, label %117

116:                                              ; preds = %111
  br label %118

117:                                              ; preds = %111
  br label %118

118:                                              ; preds = %117, %116
  %119 = phi ptr [ null, %116 ], [ %9, %117 ]
  %120 = call i32 @select(i32 noundef %113, ptr noundef %10, ptr noundef %11, ptr noundef null, ptr noundef %119)
  store i32 %120, ptr %8, align 4, !tbaa !13
  br label %121

121:                                              ; preds = %118
  %122 = load i32, ptr %8, align 4, !tbaa !13
  %123 = icmp eq i32 %122, 4
  br i1 %123, label %111, label %124, !llvm.loop !45

124:                                              ; preds = %121
  %125 = load i32, ptr %8, align 4, !tbaa !13
  %126 = icmp slt i32 %125, 0
  br i1 %126, label %127, label %128

127:                                              ; preds = %124
  store i32 -71, ptr %4, align 4
  store i32 1, ptr %13, align 4
  br label %162

128:                                              ; preds = %124
  store i32 0, ptr %8, align 4, !tbaa !13
  %129 = getelementptr inbounds nuw %struct.fd_set, ptr %10, i32 0, i32 0
  %130 = load i32, ptr %12, align 4, !tbaa !13
  %131 = sdiv i32 %130, 64
  %132 = sext i32 %131 to i64
  %133 = getelementptr inbounds [16 x i64], ptr %129, i64 0, i64 %132
  %134 = load i64, ptr %133, align 8, !tbaa !29
  %135 = load i32, ptr %12, align 4, !tbaa !13
  %136 = srem i32 %135, 64
  %137 = zext i32 %136 to i64
  %138 = shl i64 1, %137
  %139 = and i64 %134, %138
  %140 = icmp ne i64 %139, 0
  br i1 %140, label %141, label %144

141:                                              ; preds = %128
  %142 = load i32, ptr %8, align 4, !tbaa !13
  %143 = or i32 %142, 1
  store i32 %143, ptr %8, align 4, !tbaa !13
  br label %144

144:                                              ; preds = %141, %128
  %145 = getelementptr inbounds nuw %struct.fd_set, ptr %11, i32 0, i32 0
  %146 = load i32, ptr %12, align 4, !tbaa !13
  %147 = sdiv i32 %146, 64
  %148 = sext i32 %147 to i64
  %149 = getelementptr inbounds [16 x i64], ptr %145, i64 0, i64 %148
  %150 = load i64, ptr %149, align 8, !tbaa !29
  %151 = load i32, ptr %12, align 4, !tbaa !13
  %152 = srem i32 %151, 64
  %153 = zext i32 %152 to i64
  %154 = shl i64 1, %153
  %155 = and i64 %150, %154
  %156 = icmp ne i64 %155, 0
  br i1 %156, label %157, label %160

157:                                              ; preds = %144
  %158 = load i32, ptr %8, align 4, !tbaa !13
  %159 = or i32 %158, 2
  store i32 %159, ptr %8, align 4, !tbaa !13
  br label %160

160:                                              ; preds = %157, %144
  %161 = load i32, ptr %8, align 4, !tbaa !13
  store i32 %161, ptr %4, align 4
  store i32 1, ptr %13, align 4
  br label %162

162:                                              ; preds = %160, %127, %100, %25
  call void @llvm.lifetime.end.p0(i64 4, ptr %12) #7
  call void @llvm.lifetime.end.p0(i64 128, ptr %11) #7
  call void @llvm.lifetime.end.p0(i64 128, ptr %10) #7
  call void @llvm.lifetime.end.p0(i64 16, ptr %9) #7
  call void @llvm.lifetime.end.p0(i64 4, ptr %8) #7
  %163 = load i32, ptr %4, align 4
  ret i32 %163
}