; Function Attrs: nounwind uwtable
define hidden range(i32 -73, 4) i32 @mbedtls_net_poll(ptr noundef readonly captures(none) %0, i32 noundef %1, i32 noundef %2) local_unnamed_addr #1 {
  %4 = alloca %struct.timeval, align 8
  %5 = alloca %struct.fd_set, align 8
  %6 = alloca %struct.fd_set, align 8
  call void @llvm.lifetime.start.p0(i64 16, ptr nonnull %4) #9
  call void @llvm.lifetime.start.p0(i64 128, ptr nonnull %5) #9
  call void @llvm.lifetime.start.p0(i64 128, ptr nonnull %6) #9
  %7 = load i32, ptr %0, align 4, !tbaa !3
  %8 = icmp slt i32 %7, 0
  %9 = icmp sgt i32 %7, 1023
  %..i = select i1 %9, i32 -71, i32 0
  %.0.i = select i1 %8, i32 -69, i32 %..i
  %.not = icmp eq i32 %.0.i, 0
  br i1 %.not, label %.preheader.preheader, label %62

.preheader.preheader:                             ; preds = %3
  call void @llvm.memset.p0.i64(ptr noundef nonnull align 8 dereferenceable(128) %5, i8 0, i64 128, i1 false), !tbaa !28
  %10 = and i32 %1, 1
  %.not43 = icmp eq i32 %10, 0
  br i1 %.not43, label %21, label %11

11:                                               ; preds = %.preheader.preheader
  %12 = and i32 %1, -2
  %13 = srem i32 %7, 64
  %14 = zext nneg i32 %13 to i64
  %15 = shl nuw i64 1, %14
  %16 = sdiv i32 %7, 64
  %17 = sext i32 %16 to i64
  %18 = getelementptr inbounds [16 x i64], ptr %5, i64 0, i64 %17
  %19 = load i64, ptr %18, align 8, !tbaa !28
  %20 = or i64 %19, %15
  store i64 %20, ptr %18, align 8, !tbaa !28
  br label %21

21:                                               ; preds = %.preheader.preheader, %11
  %.035 = phi i32 [ %12, %11 ], [ %1, %.preheader.preheader ]
  call void @llvm.memset.p0.i64(ptr noundef nonnull align 8 dereferenceable(128) %6, i8 0, i64 128, i1 false), !tbaa !28
  %22 = and i32 %.035, 2
  %.not44 = icmp eq i32 %22, 0
  br i1 %.not44, label %33, label %23

23:                                               ; preds = %21
  %24 = and i32 %.035, -3
  %25 = srem i32 %7, 64
  %26 = zext nneg i32 %25 to i64
  %27 = shl nuw i64 1, %26
  %28 = sdiv i32 %7, 64
  %29 = sext i32 %28 to i64
  %30 = getelementptr inbounds [16 x i64], ptr %6, i64 0, i64 %29
  %31 = load i64, ptr %30, align 8, !tbaa !28
  %32 = or i64 %31, %27
  store i64 %32, ptr %30, align 8, !tbaa !28
  br label %33

33:                                               ; preds = %23, %21
  %.1 = phi i32 [ %24, %23 ], [ %.035, %21 ]
  %.not45 = icmp eq i32 %.1, 0
  br i1 %.not45, label %34, label %62

34:                                               ; preds = %33
  %35 = udiv i32 %2, 1000
  %36 = zext nneg i32 %35 to i64
  store i64 %36, ptr %4, align 8, !tbaa !29
  %37 = urem i32 %2, 1000
  %38 = mul nuw nsw i32 %37, 1000
  %39 = zext nneg i32 %38 to i64
  %40 = getelementptr inbounds nuw i8, ptr %4, i64 8
  store i64 %39, ptr %40, align 8, !tbaa !31
  %41 = add nsw i32 %7, 1
  %42 = icmp eq i32 %2, -1
  %. = select i1 %42, ptr null, ptr %4
  br label %43

43:                                               ; preds = %43, %34
  %44 = call i32 @select(i32 noundef %41, ptr noundef nonnull %5, ptr noundef nonnull %6, ptr noundef null, ptr noundef %.) #9
  %45 = icmp eq i32 %44, 4
  br i1 %45, label %43, label %46, !llvm.loop !32

46:                                               ; preds = %43
  %47 = icmp slt i32 %44, 0
  br i1 %47, label %62, label %48

48:                                               ; preds = %46
  %49 = sdiv i32 %7, 64
  %50 = sext i32 %49 to i64
  %51 = getelementptr inbounds [16 x i64], ptr %5, i64 0, i64 %50
  %52 = load i64, ptr %51, align 8, !tbaa !28
  %53 = srem i32 %7, 64
  %54 = zext nneg i32 %53 to i64
  %55 = shl nuw i64 1, %54
  %56 = lshr i64 %52, %54
  %57 = trunc i64 %56 to i32
  %spec.select = and i32 %57, 1
  %58 = getelementptr inbounds [16 x i64], ptr %6, i64 0, i64 %50
  %59 = load i64, ptr %58, align 8, !tbaa !28
  %60 = and i64 %59, %55
  %.not47 = icmp eq i64 %60, 0
  %61 = or disjoint i32 %spec.select, 2
  %.138 = select i1 %.not47, i32 %spec.select, i32 %61
  br label %62

62:                                               ; preds = %46, %33, %3, %48
  %.0 = phi i32 [ %.138, %48 ], [ %.0.i, %3 ], [ -73, %33 ], [ -71, %46 ]
  call void @llvm.lifetime.end.p0(i64 128, ptr nonnull %6) #9
  call void @llvm.lifetime.end.p0(i64 128, ptr nonnull %5) #9
  call void @llvm.lifetime.end.p0(i64 16, ptr nonnull %4) #9
  ret i32 %.0
}